target datalayout = "e-m:e-p270:32:32-p271:32:32-p272:64:64-i64:64-i128:128-f80:128-n8:16:32:64-S128"
target triple = "x86_64-pc-linux-gnu"

@.str.46 = private unnamed_addr constant [5 x i8] c"Gain\00", align 1
@hf_vrt_context_gain_stage2 = internal global i32 0, align 4
@hf_vrt_context_gain_stage1 = internal global i32 0, align 4

; Function Attrs: null_pointer_is_valid sspstrong uwtable
define internal i32 @dissect_context_gain(ptr noundef %0, ptr noundef %1, i32 noundef %2) #0 {
  %4 = alloca ptr, align 8
  %5 = alloca ptr, align 8
  %6 = alloca i32, align 4
  %7 = alloca ptr, align 8
  store ptr %0, ptr %4, align 8
  store ptr %1, ptr %5, align 8
  store i32 %2, ptr %6, align 4
  call void @llvm.lifetime.start.p0(i64 8, ptr %7) #7
  %8 = load ptr, ptr %4, align 8
  %9 = load ptr, ptr %5, align 8
  %10 = load i32, ptr %6, align 4
  %11 = call ptr @proto_tree_add_subtree(ptr noundef %8, ptr noundef %9, i32 noundef %10, i32 noundef 4, i32 noundef 8, ptr noundef null, ptr noundef @.str.46)
  store ptr %11, ptr %7, align 8
  %12 = load ptr, ptr %7, align 8
  %13 = load i32, ptr @hf_vrt_context_gain_stage2, align 4
  %14 = load ptr, ptr %5, align 8
  %15 = load i32, ptr %6, align 4
  %16 = call ptr @proto_tree_add_item(ptr noundef %12, i32 noundef %13, ptr noundef %14, i32 noundef %15, i32 noundef 2, i32 noundef 0)
  %17 = load ptr, ptr %7, align 8
  %18 = load i32, ptr @hf_vrt_context_gain_stage1, align 4
  %19 = load ptr, ptr %5, align 8
  %20 = load i32, ptr %6, align 4
  %21 = add i32 %20, 2
  %22 = call ptr @proto_tree_add_item(ptr noundef %17, i32 noundef %18, ptr noundef %19, i32 noundef %21, i32 noundef 2, i32 noundef 0)
  call void @llvm.lifetime.end.p0(i64 8, ptr %7) #7
  ret i32 0
}