; Function Attrs: null_pointer_is_valid sspstrong uwtable
define internal noundef i32 @dissect_context_gain(ptr noundef %0, ptr noundef %1, i32 noundef %2) #0 {
  %4 = tail call ptr @proto_tree_add_subtree(ptr noundef %0, ptr noundef %1, i32 noundef %2, i32 noundef 4, i32 noundef 8, ptr noundef null, ptr noundef nonnull @.str.46)
  %5 = load i32, ptr @hf_vrt_context_gain_stage2, align 4
  %6 = tail call ptr @proto_tree_add_item(ptr noundef %4, i32 noundef %5, ptr noundef %1, i32 noundef %2, i32 noundef 2, i32 noundef 0)
  %7 = load i32, ptr @hf_vrt_context_gain_stage1, align 4
  %8 = add i32 %2, 2
  %9 = tail call ptr @proto_tree_add_item(ptr noundef %4, i32 noundef %7, ptr noundef %1, i32 noundef %8, i32 noundef 2, i32 noundef 0)
  ret i32 0
}